target datalayout = "e-m:e-p270:32:32-p271:32:32-p272:64:64-i64:64-i128:128-f80:128-n8:16:32:64-S128"
target triple = "x86_64-unknown-linux-gnu"

%struct.TypeInfo = type { ptr, ptr, i64, i64, ptr, ptr, ptr, i8, i64, ptr, ptr, ptr, ptr }
%struct.EHCIPCIInfo = type { ptr, i16, i16, i8, i8 }

@__const.ehci_pci_register_types.ehci_type_info = private unnamed_addr constant %struct.TypeInfo { ptr null, ptr @.str, i64 0, i64 0, ptr null, ptr null, ptr null, i8 0, i64 0, ptr @ehci_data_class_init, ptr null, ptr null, ptr null }, align 8
@ehci_pci_type_info = internal constant %struct.TypeInfo { ptr @.str, ptr @.str.1, i64 4816, i64 0, ptr @usb_ehci_pci_init, ptr null, ptr @usb_ehci_pci_finalize, i8 1, i64 0, ptr @ehci_class_init, ptr null, ptr null, ptr @.compoundliteral }, align 8
@ehci_pci_info = internal global [3 x %struct.EHCIPCIInfo] [%struct.EHCIPCIInfo { ptr @.str.11, i16 -32634, i16 9421, i8 16, i8 0 }, %struct.EHCIPCIInfo { ptr @.str.12, i16 -32634, i16 10554, i8 3, i8 1 }, %struct.EHCIPCIInfo { ptr @.str.13, i16 -32634, i16 10556, i8 3, i8 1 }], align 16

; Function Attrs: nounwind sspstrong uwtable
define internal void @ehci_pci_register_types() #0 {
entry:
  %ehci_type_info = alloca %struct.TypeInfo, align 8
  %i = alloca i32, align 4
  call void @llvm.memcpy.p0.p0.i64(ptr align 8 %ehci_type_info, ptr align 8 @__const.ehci_pci_register_types.ehci_type_info, i64 104, i1 false)
  %call = call ptr @type_register_static(ptr noundef @ehci_pci_type_info)
  store i32 0, ptr %i, align 4
  br label %for.cond

for.cond:                                         ; preds = %for.inc, %entry
  %0 = load i32, ptr %i, align 4
  %conv = sext i32 %0 to i64
  %cmp = icmp ult i64 %conv, 3
  br i1 %cmp, label %for.body, label %for.end

for.body:                                         ; preds = %for.cond
  %1 = load i32, ptr %i, align 4
  %idxprom = sext i32 %1 to i64
  %arrayidx = getelementptr [3 x %struct.EHCIPCIInfo], ptr @ehci_pci_info, i64 0, i64 %idxprom
  %name = getelementptr inbounds %struct.EHCIPCIInfo, ptr %arrayidx, i32 0, i32 0
  %2 = load ptr, ptr %name, align 16
  %name2 = getelementptr inbounds %struct.TypeInfo, ptr %ehci_type_info, i32 0, i32 0
  store ptr %2, ptr %name2, align 8
  %3 = load i32, ptr %i, align 4
  %idx.ext = sext i32 %3 to i64
  %add.ptr = getelementptr %struct.EHCIPCIInfo, ptr @ehci_pci_info, i64 %idx.ext
  %class_data = getelementptr inbounds %struct.TypeInfo, ptr %ehci_type_info, i32 0, i32 11
  store ptr %add.ptr, ptr %class_data, align 8
  %call3 = call ptr @type_register(ptr noundef %ehci_type_info)
  br label %for.inc

for.inc:                                          ; preds = %for.body
  %4 = load i32, ptr %i, align 4
  %inc = add i32 %4, 1
  store i32 %inc, ptr %i, align 4
  br label %for.cond, !llvm.loop !5

for.end:                                          ; preds = %for.cond
  ret void
}