; Function Attrs: nounwind sspstrong uwtable
define internal void @ehci_pci_register_types() #0 {
entry:
  %ehci_type_info = alloca %struct.TypeInfo, align 8
  call void @llvm.memcpy.p0.p0.i64(ptr noundef nonnull align 8 dereferenceable(104) %ehci_type_info, ptr noundef nonnull align 8 dereferenceable(104) @__const.ehci_pci_register_types.ehci_type_info, i64 104, i1 false)
  %call = tail call ptr @type_register_static(ptr noundef nonnull @ehci_pci_type_info) #4
  %class_data = getelementptr inbounds nuw i8, ptr %ehci_type_info, i64 88
  br label %for.body

for.body:                                         ; preds = %entry, %for.body
  %indvars.iv = phi i64 [ 0, %entry ], [ %indvars.iv.next, %for.body ]
  %arrayidx = getelementptr [3 x %struct.EHCIPCIInfo], ptr @ehci_pci_info, i64 0, i64 %indvars.iv
  %0 = load ptr, ptr %arrayidx, align 16
  store ptr %0, ptr %ehci_type_info, align 8
  store ptr %arrayidx, ptr %class_data, align 8
  %call3 = call ptr @type_register(ptr noundef nonnull %ehci_type_info) #4
  %indvars.iv.next = add nuw nsw i64 %indvars.iv, 1
  %exitcond.not = icmp eq i64 %indvars.iv.next, 3
  br i1 %exitcond.not, label %for.end, label %for.body, !llvm.loop !5

for.end:                                          ; preds = %for.body
  ret void
}